; Function Attrs: mustprogress nounwind uwtable
define hidden void @_ZN19OpenColorIO_v2_4dev20GenericGpuShaderDescD0Ev(ptr noundef nonnull align 8 dereferenceable(24) %this) unnamed_addr #6 align 2 {
entry:
  store ptr getelementptr inbounds ({ [34 x ptr] }, ptr @_ZTVN19OpenColorIO_v2_4dev20GenericGpuShaderDescE, i64 0, i32 0, i64 2), ptr %this, align 8
  %m_implGeneric.i = getelementptr inbounds i8, ptr %this, i64 16
  %0 = load ptr, ptr %m_implGeneric.i, align 8
  %isnull.i = icmp eq ptr %0, null
  br i1 %isnull.i, label %_ZN19OpenColorIO_v2_4dev20GenericGpuShaderDescD2Ev.exit, label %delete.notnull.i

delete.notnull.i:                                 ; preds = %entry
  %vtable.i = load ptr, ptr %0, align 8
  %vfn.i = getelementptr inbounds i8, ptr %vtable.i, i64 8
  %1 = load ptr, ptr %vfn.i, align 8
  tail call void %1(ptr noundef nonnull align 8 dereferenceable(85) %0) #21
  br label %_ZN19OpenColorIO_v2_4dev20GenericGpuShaderDescD2Ev.exit

_ZN19OpenColorIO_v2_4dev20GenericGpuShaderDescD2Ev.exit: ; preds = %entry, %delete.notnull.i
  store ptr null, ptr %m_implGeneric.i, align 8
  tail call void @_ZN19OpenColorIO_v2_4dev13GpuShaderDescD2Ev(ptr noundef nonnull align 8 dereferenceable(16) %this) #21
  tail call void @_ZdlPv(ptr noundef nonnull %this) #24
  ret void
}